; Function Attrs: mustprogress uwtable
define void @_ZN6casadi4Dple16get_sparsity_outEx(ptr dead_on_unwind noalias writable sret(%"class.casadi::Sparsity") align 8 %0, ptr noundef nonnull align 8 dereferenceable(1360) %1, i64 noundef %2) unnamed_addr #3 align 2 {
  %4 = and i64 %2, 4294967295
  %cond = icmp eq i64 %4, 0
  br i1 %cond, label %5, label %7

5:                                                ; preds = %3
  %6 = getelementptr inbounds i8, ptr %1, i64 1320
  tail call void @_ZN6casadi12SharedObjectC2ERKS0_(ptr noundef nonnull align 8 dereferenceable(8) %0, ptr noundef nonnull align 8 dereferenceable(8) %6)
  br label %8

7:                                                ; preds = %3
  tail call void @_ZN6casadi8SparsityC1Ex(ptr noundef nonnull align 8 dereferenceable(8) %0, i64 noundef 0)
  br label %8

8:                                                ; preds = %7, %5
  ret void
}